target datalayout = "e-m:e-p270:32:32-p271:32:32-p272:64:64-i64:64-i128:128-f80:128-n8:16:32:64-S128"
target triple = "x86_64-pc-linux-gnu"

%struct.mlib_image = type { i32, i32, i32, i32, i32, i32, ptr, ptr, [4 x i8], i32, i32, [3 x i32] }

; Function Attrs: nounwind uwtable
define internal i32 @mlib_ImageGetChannels(ptr noundef %0) #0 {
  %2 = alloca ptr, align 8
  store ptr %0, ptr %2, align 8
  %3 = load ptr, ptr %2, align 8
  %4 = getelementptr inbounds %struct.mlib_image, ptr %3, i32 0, i32 1
  %5 = load i32, ptr %4, align 4
  ret i32 %5
}

; Function Attrs: nounwind uwtable
define internal i32 @mlib_ImageGetStride(ptr noundef %0) #0 {
  %2 = alloca ptr, align 8
  store ptr %0, ptr %2, align 8
  %3 = load ptr, ptr %2, align 8
  %4 = getelementptr inbounds %struct.mlib_image, ptr %3, i32 0, i32 4
  %5 = load i32, ptr %4, align 8
  ret i32 %5
}

; Function Attrs: nounwind uwtable
define internal i32 @mlib_ImageGetWidth(ptr noundef %0) #0 {
  %2 = alloca ptr, align 8
  store ptr %0, ptr %2, align 8
  %3 = load ptr, ptr %2, align 8
  %4 = getelementptr inbounds %struct.mlib_image, ptr %3, i32 0, i32 2
  %5 = load i32, ptr %4, align 8
  ret i32 %5
}

; Function Attrs: nounwind uwtable
define internal i32 @mlib_ImageGetHeight(ptr noundef %0) #0 {
  %2 = alloca ptr, align 8
  store ptr %0, ptr %2, align 8
  %3 = load ptr, ptr %2, align 8
  %4 = getelementptr inbounds %struct.mlib_image, ptr %3, i32 0, i32 3
  %5 = load i32, ptr %4, align 4
  ret i32 %5
}

; Function Attrs: nounwind uwtable
define internal ptr @mlib_ImageGetData(ptr noundef %0) #0 {
  %2 = alloca ptr, align 8
  store ptr %0, ptr %2, align 8
  %3 = load ptr, ptr %2, align 8
  %4 = getelementptr inbounds %struct.mlib_image, ptr %3, i32 0, i32 6
  %5 = load ptr, ptr %4, align 8
  ret ptr %5
}

; Function Attrs: nounwind uwtable
define internal void @mlib_c_ImageCopy_s32(ptr noundef %0, ptr noundef %1) #0 {
  %3 = alloca ptr, align 8
  %4 = alloca ptr, align 8
  %5 = alloca ptr, align 8
  %6 = alloca ptr, align 8
  %7 = alloca i32, align 4
  %8 = alloca i32, align 4
  %9 = alloca i32, align 4
  %10 = alloca i32, align 4
  %11 = alloca i32, align 4
  %12 = alloca i32, align 4
  %13 = alloca i32, align 4
  %14 = alloca i32, align 4
  %15 = alloca i32, align 4
  %16 = alloca ptr, align 8
  %17 = alloca ptr, align 8
  %18 = alloca double, align 8
  %19 = alloca ptr, align 8
  %20 = alloca i64, align 8
  %21 = alloca i64, align 8
  store ptr %0, ptr %3, align 8
  store ptr %1, ptr %4, align 8
  %22 = load ptr, ptr %3, align 8
  %23 = call ptr @mlib_ImageGetData(ptr noundef %22)
  store ptr %23, ptr %5, align 8
  %24 = load ptr, ptr %4, align 8
  %25 = call ptr @mlib_ImageGetData(ptr noundef %24)
  store ptr %25, ptr %6, align 8
  %26 = load ptr, ptr %3, align 8
  %27 = call i32 @mlib_ImageGetHeight(ptr noundef %26)
  store i32 %27, ptr %7, align 4
  %28 = load ptr, ptr %3, align 8
  %29 = call i32 @mlib_ImageGetWidth(ptr noundef %28)
  store i32 %29, ptr %8, align 4
  %30 = load ptr, ptr %3, align 8
  %31 = call i32 @mlib_ImageGetStride(ptr noundef %30)
  %32 = sext i32 %31 to i64
  %33 = udiv i64 %32, 4
  %34 = trunc i64 %33 to i32
  store i32 %34, ptr %9, align 4
  %35 = load ptr, ptr %4, align 8
  %36 = call i32 @mlib_ImageGetStride(ptr noundef %35)
  %37 = sext i32 %36 to i64
  %38 = udiv i64 %37, 4
  %39 = trunc i64 %38 to i32
  store i32 %39, ptr %10, align 4
  %40 = load ptr, ptr %4, align 8
  %41 = call i32 @mlib_ImageGetChannels(ptr noundef %40)
  store i32 %41, ptr %11, align 4
  %42 = load i32, ptr %11, align 4
  %43 = load i32, ptr %8, align 4
  %44 = mul nsw i32 %43, %42
  store i32 %44, ptr %8, align 4
  %45 = load i32, ptr %8, align 4
  %46 = load i32, ptr %9, align 4
  %47 = icmp eq i32 %45, %46
  br i1 %47, label %48, label %56

48:                                               ; preds = %2
  %49 = load i32, ptr %8, align 4
  %50 = load i32, ptr %10, align 4
  %51 = icmp eq i32 %49, %50
  br i1 %51, label %52, label %56

52:                                               ; preds = %48
  %53 = load i32, ptr %7, align 4
  %54 = load i32, ptr %8, align 4
  %55 = mul nsw i32 %54, %53
  store i32 %55, ptr %8, align 4
  store i32 1, ptr %7, align 4
  br label %56

56:                                               ; preds = %52, %48, %2
  %57 = load i32, ptr %8, align 4
  %58 = icmp slt i32 %57, 4
  br i1 %58, label %59, label %134

59:                                               ; preds = %56
  store i32 0, ptr %12, align 4
  br label %60

60:                                               ; preds = %130, %59
  %61 = load i32, ptr %12, align 4
  %62 = load i32, ptr %7, align 4
  %63 = icmp slt i32 %61, %62
  br i1 %63, label %64, label %133

64:                                               ; preds = %60
  %65 = load i32, ptr %8, align 4
  %66 = and i32 %65, 1
  store i32 %66, ptr %13, align 4
  %67 = icmp ne i32 %66, 0
  br i1 %67, label %68, label %82

68:                                               ; preds = %64
  %69 = load ptr, ptr %5, align 8
  %70 = load i32, ptr %12, align 4
  %71 = load i32, ptr %9, align 4
  %72 = mul nsw i32 %70, %71
  %73 = sext i32 %72 to i64
  %74 = getelementptr inbounds i32, ptr %69, i64 %73
  %75 = load i32, ptr %74, align 4
  %76 = load ptr, ptr %6, align 8
  %77 = load i32, ptr %12, align 4
  %78 = load i32, ptr %10, align 4
  %79 = mul nsw i32 %77, %78
  %80 = sext i32 %79 to i64
  %81 = getelementptr inbounds i32, ptr %76, i64 %80
  store i32 %75, ptr %81, align 4
  br label %82

82:                                               ; preds = %68, %64
  br label %83

83:                                               ; preds = %126, %82
  %84 = load i32, ptr %13, align 4
  %85 = load i32, ptr %8, align 4
  %86 = icmp slt i32 %84, %85
  br i1 %86, label %87, label %129

87:                                               ; preds = %83
  %88 = load ptr, ptr %5, align 8
  %89 = load i32, ptr %12, align 4
  %90 = load i32, ptr %9, align 4
  %91 = mul nsw i32 %89, %90
  %92 = load i32, ptr %13, align 4
  %93 = add nsw i32 %91, %92
  %94 = sext i32 %93 to i64
  %95 = getelementptr inbounds i32, ptr %88, i64 %94
  %96 = load i32, ptr %95, align 4
  store i32 %96, ptr %14, align 4
  %97 = load ptr, ptr %5, align 8
  %98 = load i32, ptr %12, align 4
  %99 = load i32, ptr %9, align 4
  %100 = mul nsw i32 %98, %99
  %101 = load i32, ptr %13, align 4
  %102 = add nsw i32 %100, %101
  %103 = add nsw i32 %102, 1
  %104 = sext i32 %103 to i64
  %105 = getelementptr inbounds i32, ptr %97, i64 %104
  %106 = load i32, ptr %105, align 4
  store i32 %106, ptr %15, align 4
  %107 = load i32, ptr %14, align 4
  %108 = load ptr, ptr %6, align 8
  %109 = load i32, ptr %12, align 4
  %110 = load i32, ptr %10, align 4
  %111 = mul nsw i32 %109, %110
  %112 = load i32, ptr %13, align 4
  %113 = add nsw i32 %111, %112
  %114 = sext i32 %113 to i64
  %115 = getelementptr inbounds i32, ptr %108, i64 %114
  store i32 %107, ptr %115, align 4
  %116 = load i32, ptr %15, align 4
  %117 = load ptr, ptr %6, align 8
  %118 = load i32, ptr %12, align 4
  %119 = load i32, ptr %10, align 4
  %120 = mul nsw i32 %118, %119
  %121 = load i32, ptr %13, align 4
  %122 = add nsw i32 %120, %121
  %123 = add nsw i32 %122, 1
  %124 = sext i32 %123 to i64
  %125 = getelementptr inbounds i32, ptr %117, i64 %124
  store i32 %116, ptr %125, align 4
  br label %126

126:                                              ; preds = %87
  %127 = load i32, ptr %13, align 4
  %128 = add nsw i32 %127, 2
  store i32 %128, ptr %13, align 4
  br label %83, !llvm.loop !35

129:                                              ; preds = %83
  br label %130

130:                                              ; preds = %129
  %131 = load i32, ptr %12, align 4
  %132 = add nsw i32 %131, 1
  store i32 %132, ptr %12, align 4
  br label %60, !llvm.loop !36

133:                                              ; preds = %60
  br label %264

134:                                              ; preds = %56
  store i32 0, ptr %12, align 4
  br label %135

135:                                              ; preds = %261, %134
  %136 = load i32, ptr %12, align 4
  %137 = load i32, ptr %7, align 4
  %138 = icmp slt i32 %136, %137
  br i1 %138, label %139, label %264

139:                                              ; preds = %135
  %140 = load ptr, ptr %5, align 8
  %141 = load i32, ptr %12, align 4
  %142 = load i32, ptr %9, align 4
  %143 = mul nsw i32 %141, %142
  %144 = sext i32 %143 to i64
  %145 = getelementptr inbounds i32, ptr %140, i64 %144
  store ptr %145, ptr %16, align 8
  %146 = load ptr, ptr %6, align 8
  %147 = load i32, ptr %12, align 4
  %148 = load i32, ptr %10, align 4
  %149 = mul nsw i32 %147, %148
  %150 = sext i32 %149 to i64
  %151 = getelementptr inbounds i32, ptr %146, i64 %150
  store ptr %151, ptr %17, align 8
  %152 = load ptr, ptr %16, align 8
  %153 = ptrtoint ptr %152 to i64
  %154 = load ptr, ptr %17, align 8
  %155 = ptrtoint ptr %154 to i64
  %156 = xor i64 %153, %155
  %157 = and i64 %156, 7
  %158 = icmp ne i64 %157, 0
  br i1 %158, label %194, label %159

159:                                              ; preds = %139
  %160 = load ptr, ptr %16, align 8
  %161 = ptrtoint ptr %160 to i64
  %162 = and i64 %161, 4
  %163 = trunc i64 %162 to i32
  %164 = ashr i32 %163, 2
  store i32 %164, ptr %13, align 4
  %165 = load i32, ptr %13, align 4
  %166 = icmp ne i32 %165, 0
  br i1 %166, label %167, label %173

167:                                              ; preds = %159
  %168 = load ptr, ptr %16, align 8
  %169 = getelementptr inbounds i32, ptr %168, i64 0
  %170 = load i32, ptr %169, align 4
  %171 = load ptr, ptr %17, align 8
  %172 = getelementptr inbounds i32, ptr %171, i64 0
  store i32 %170, ptr %172, align 4
  br label %173

173:                                              ; preds = %167, %159
  br label %174

174:                                              ; preds = %190, %173
  %175 = load i32, ptr %13, align 4
  %176 = load i32, ptr %8, align 4
  %177 = sub nsw i32 %176, 2
  %178 = icmp sle i32 %175, %177
  br i1 %178, label %179, label %193

179:                                              ; preds = %174
  %180 = load ptr, ptr %16, align 8
  %181 = load i32, ptr %13, align 4
  %182 = sext i32 %181 to i64
  %183 = getelementptr inbounds i32, ptr %180, i64 %182
  %184 = load double, ptr %183, align 8
  store double %184, ptr %18, align 8
  %185 = load double, ptr %18, align 8
  %186 = load ptr, ptr %17, align 8
  %187 = load i32, ptr %13, align 4
  %188 = sext i32 %187 to i64
  %189 = getelementptr inbounds i32, ptr %186, i64 %188
  store double %185, ptr %189, align 8
  br label %190

190:                                              ; preds = %179
  %191 = load i32, ptr %13, align 4
  %192 = add nsw i32 %191, 2
  store i32 %192, ptr %13, align 4
  br label %174, !llvm.loop !37

193:                                              ; preds = %174
  br label %242

194:                                              ; preds = %139
  %195 = load ptr, ptr %17, align 8
  %196 = ptrtoint ptr %195 to i64
  %197 = and i64 %196, 4
  %198 = trunc i64 %197 to i32
  %199 = ashr i32 %198, 2
  store i32 %199, ptr %13, align 4
  %200 = load i32, ptr %13, align 4
  %201 = icmp ne i32 %200, 0
  br i1 %201, label %202, label %208

202:                                              ; preds = %194
  %203 = load ptr, ptr %16, align 8
  %204 = getelementptr inbounds i32, ptr %203, i64 0
  %205 = load i32, ptr %204, align 4
  %206 = load ptr, ptr %17, align 8
  %207 = getelementptr inbounds i32, ptr %206, i64 0
  store i32 %205, ptr %207, align 4
  br label %208

208:                                              ; preds = %202, %194
  %209 = load ptr, ptr %16, align 8
  %210 = load i32, ptr %13, align 4
  %211 = sext i32 %210 to i64
  %212 = getelementptr inbounds i32, ptr %209, i64 %211
  %213 = getelementptr inbounds i32, ptr %212, i64 -1
  store ptr %213, ptr %19, align 8
  %214 = load ptr, ptr %19, align 8
  %215 = getelementptr inbounds i64, ptr %214, i64 0
  %216 = load i64, ptr %215, align 8
  store i64 %216, ptr %21, align 8
  br label %217

217:                                              ; preds = %238, %208
  %218 = load i32, ptr %13, align 4
  %219 = load i32, ptr %8, align 4
  %220 = sub nsw i32 %219, 2
  %221 = icmp sle i32 %218, %220
  br i1 %221, label %222, label %241

222:                                              ; preds = %217
  %223 = load i64, ptr %21, align 8
  store i64 %223, ptr %20, align 8
  %224 = load ptr, ptr %19, align 8
  %225 = getelementptr inbounds i64, ptr %224, i64 1
  %226 = load i64, ptr %225, align 8
  store i64 %226, ptr %21, align 8
  %227 = load i64, ptr %20, align 8
  %228 = lshr i64 %227, 32
  %229 = load i64, ptr %21, align 8
  %230 = shl i64 %229, 32
  %231 = or i64 %228, %230
  %232 = load ptr, ptr %17, align 8
  %233 = load i32, ptr %13, align 4
  %234 = sext i32 %233 to i64
  %235 = getelementptr inbounds i32, ptr %232, i64 %234
  store i64 %231, ptr %235, align 8
  %236 = load ptr, ptr %19, align 8
  %237 = getelementptr inbounds i64, ptr %236, i32 1
  store ptr %237, ptr %19, align 8
  br label %238

238:                                              ; preds = %222
  %239 = load i32, ptr %13, align 4
  %240 = add nsw i32 %239, 2
  store i32 %240, ptr %13, align 4
  br label %217, !llvm.loop !38

241:                                              ; preds = %217
  br label %242

242:                                              ; preds = %241, %193
  br label %243

243:                                              ; preds = %257, %242
  %244 = load i32, ptr %13, align 4
  %245 = load i32, ptr %8, align 4
  %246 = icmp slt i32 %244, %245
  br i1 %246, label %247, label %260

247:                                              ; preds = %243
  %248 = load ptr, ptr %16, align 8
  %249 = load i32, ptr %13, align 4
  %250 = sext i32 %249 to i64
  %251 = getelementptr inbounds i32, ptr %248, i64 %250
  %252 = load i32, ptr %251, align 4
  %253 = load ptr, ptr %17, align 8
  %254 = load i32, ptr %13, align 4
  %255 = sext i32 %254 to i64
  %256 = getelementptr inbounds i32, ptr %253, i64 %255
  store i32 %252, ptr %256, align 4
  br label %257

257:                                              ; preds = %247
  %258 = load i32, ptr %13, align 4
  %259 = add nsw i32 %258, 1
  store i32 %259, ptr %13, align 4
  br label %243, !llvm.loop !39

260:                                              ; preds = %243
  br label %261

261:                                              ; preds = %260
  %262 = load i32, ptr %12, align 4
  %263 = add nsw i32 %262, 1
  store i32 %263, ptr %12, align 4
  br label %135, !llvm.loop !40

264:                                              ; preds = %135, %133
  ret void
}