; Function Attrs: nofree norecurse nosync nounwind memory(readwrite, inaccessiblemem: none) uwtable
define internal fastcc void @mlib_c_ImageCopy_s32(ptr nocapture noundef readonly %0, ptr nocapture noundef readonly %1) unnamed_addr #1 {
  %3 = getelementptr i8, ptr %0, i64 24
  %.val109 = load ptr, ptr %3, align 8
  %.val109149 = ptrtoint ptr %.val109 to i64
  %4 = getelementptr i8, ptr %1, i64 24
  %.val108 = load ptr, ptr %4, align 8
  %.val108141 = ptrtoint ptr %.val108 to i64
  %5 = getelementptr i8, ptr %0, i64 12
  %.val107 = load i32, ptr %5, align 4
  %6 = getelementptr i8, ptr %0, i64 8
  %.val106 = load i32, ptr %6, align 8
  %7 = getelementptr i8, ptr %0, i64 16
  %.val111 = load i32, ptr %7, align 8
  %8 = ashr i32 %.val111, 2
  %9 = getelementptr i8, ptr %1, i64 16
  %.val110 = load i32, ptr %9, align 8
  %10 = ashr i32 %.val110, 2
  %11 = getelementptr i8, ptr %1, i64 4
  %.val = load i32, ptr %11, align 4
  %12 = mul nsw i32 %.val, %.val106
  %13 = icmp eq i32 %12, %8
  %14 = icmp eq i32 %12, %10
  %or.cond = select i1 %13, i1 %14, i1 false
  %15 = select i1 %or.cond, i32 %.val107, i32 1
  %.095 = mul nsw i32 %15, %12
  %.093 = select i1 %or.cond, i32 1, i32 %.val107
  %16 = icmp slt i32 %.095, 4
  %17 = icmp sgt i32 %.093, 0
  br i1 %16, label %.preheader, label %.preheader114

.preheader114:                                    ; preds = %2
  br i1 %17, label %.lr.ph127, label %.loopexit

.lr.ph127:                                        ; preds = %.preheader114
  %18 = add nsw i32 %.095, -2
  %19 = trunc i64 %.val108141 to i32
  %20 = and i32 %.val110, -4
  %21 = zext nneg i32 %18 to i64
  %22 = trunc i64 %.val109149 to i32
  %23 = and i32 %.val111, -4
  %24 = sext i32 %8 to i64
  %25 = sext i32 %10 to i64
  %wide.trip.count164 = zext nneg i32 %.093 to i64
  %wide.trip.count = zext nneg i32 %.095 to i64
  br label %51

.preheader:                                       ; preds = %2
  br i1 %17, label %.lr.ph133, label %.loopexit

.lr.ph133:                                        ; preds = %.preheader
  %26 = and i32 %.095, 1
  %.not105 = icmp eq i32 %26, 0
  %27 = icmp sgt i32 %.095, 1
  br i1 %27, label %.lr.ph133.split.us, label %.lr.ph133.split

.lr.ph133.split.us:                               ; preds = %.lr.ph133
  %28 = zext nneg i32 %.095 to i64
  %29 = sext i32 %8 to i64
  %30 = sext i32 %10 to i64
  %wide.trip.count185 = zext nneg i32 %.093 to i64
  br i1 %.not105, label %.lr.ph130.us.us, label %.lr.ph130.us

.lr.ph130.us.us:                                  ; preds = %.lr.ph133.split.us, %._crit_edge131.us.us
  %indvars.iv182 = phi i64 [ %indvars.iv.next183, %._crit_edge131.us.us ], [ 0, %.lr.ph133.split.us ]
  %31 = mul nsw i64 %indvars.iv182, %29
  %32 = mul nsw i64 %indvars.iv182, %30
  %invariant.gep193 = getelementptr i32, ptr %.val109, i64 %31
  %invariant.gep195 = getelementptr i32, ptr %.val108, i64 %32
  br label %33

33:                                               ; preds = %33, %.lr.ph130.us.us
  %indvars.iv179 = phi i64 [ %indvars.iv.next180, %33 ], [ 0, %.lr.ph130.us.us ]
  %gep194 = getelementptr i32, ptr %invariant.gep193, i64 %indvars.iv179
  %gep196 = getelementptr i32, ptr %invariant.gep195, i64 %indvars.iv179
  %34 = load <2 x i32>, ptr %gep194, align 4
  store <2 x i32> %34, ptr %gep196, align 4
  %indvars.iv.next180 = add nuw nsw i64 %indvars.iv179, 2
  %35 = icmp ult i64 %indvars.iv.next180, %28
  br i1 %35, label %33, label %._crit_edge131.us.us, !llvm.loop !35

._crit_edge131.us.us:                             ; preds = %33
  %indvars.iv.next183 = add nuw nsw i64 %indvars.iv182, 1
  %exitcond186.not = icmp eq i64 %indvars.iv.next183, %wide.trip.count185
  br i1 %exitcond186.not, label %.loopexit, label %.lr.ph130.us.us, !llvm.loop !36

.lr.ph130.us:                                     ; preds = %.lr.ph133.split.us, %._crit_edge131.us
  %indvars.iv174 = phi i64 [ %indvars.iv.next175, %._crit_edge131.us ], [ 0, %.lr.ph133.split.us ]
  %36 = mul nsw i64 %indvars.iv174, %29
  %37 = getelementptr inbounds i32, ptr %.val109, i64 %36
  %38 = load i32, ptr %37, align 4
  %39 = mul nsw i64 %indvars.iv174, %30
  %40 = getelementptr inbounds i32, ptr %.val108, i64 %39
  store i32 %38, ptr %40, align 4
  %invariant.gep = getelementptr i32, ptr %.val109, i64 %36
  %invariant.gep191 = getelementptr i32, ptr %.val108, i64 %39
  br label %41

41:                                               ; preds = %.lr.ph130.us, %41
  %indvars.iv171 = phi i64 [ 1, %.lr.ph130.us ], [ %indvars.iv.next172, %41 ]
  %gep = getelementptr i32, ptr %invariant.gep, i64 %indvars.iv171
  %gep192 = getelementptr i32, ptr %invariant.gep191, i64 %indvars.iv171
  %42 = load <2 x i32>, ptr %gep, align 4
  store <2 x i32> %42, ptr %gep192, align 4
  %indvars.iv.next172 = add nuw nsw i64 %indvars.iv171, 2
  %43 = icmp ult i64 %indvars.iv.next172, %28
  br i1 %43, label %41, label %._crit_edge131.us, !llvm.loop !35

._crit_edge131.us:                                ; preds = %41
  %indvars.iv.next175 = add nuw nsw i64 %indvars.iv174, 1
  %exitcond178.not = icmp eq i64 %indvars.iv.next175, %wide.trip.count185
  br i1 %exitcond178.not, label %.loopexit, label %.lr.ph130.us, !llvm.loop !36

.lr.ph133.split:                                  ; preds = %.lr.ph133
  br i1 %.not105, label %.loopexit, label %.lr.ph133.split.split.preheader

.lr.ph133.split.split.preheader:                  ; preds = %.lr.ph133.split
  %44 = sext i32 %8 to i64
  %45 = sext i32 %10 to i64
  %wide.trip.count169 = zext nneg i32 %.093 to i64
  br label %.lr.ph133.split.split

.lr.ph133.split.split:                            ; preds = %.lr.ph133.split.split.preheader, %.lr.ph133.split.split
  %indvars.iv166 = phi i64 [ 0, %.lr.ph133.split.split.preheader ], [ %indvars.iv.next167, %.lr.ph133.split.split ]
  %46 = mul nsw i64 %indvars.iv166, %44
  %47 = getelementptr inbounds i32, ptr %.val109, i64 %46
  %48 = load i32, ptr %47, align 4
  %49 = mul nsw i64 %indvars.iv166, %45
  %50 = getelementptr inbounds i32, ptr %.val108, i64 %49
  store i32 %48, ptr %50, align 4
  %indvars.iv.next167 = add nuw nsw i64 %indvars.iv166, 1
  %exitcond170.not = icmp eq i64 %indvars.iv.next167, %wide.trip.count169
  br i1 %exitcond170.not, label %.loopexit, label %.lr.ph133.split.split, !llvm.loop !36

51:                                               ; preds = %.lr.ph127, %._crit_edge
  %indvars.iv161 = phi i64 [ 0, %.lr.ph127 ], [ %indvars.iv.next162, %._crit_edge ]
  %indvars.iv150 = phi i32 [ %22, %.lr.ph127 ], [ %indvars.iv.next151, %._crit_edge ]
  %indvars.iv = phi i32 [ %19, %.lr.ph127 ], [ %indvars.iv.next, %._crit_edge ]
  %52 = lshr i32 %indvars.iv150, 2
  %.lobit = and i32 %52, 1
  %53 = zext nneg i32 %.lobit to i64
  %54 = lshr i32 %indvars.iv, 2
  %.lobit187 = and i32 %54, 1
  %55 = zext nneg i32 %.lobit187 to i64
  %56 = mul nsw i64 %indvars.iv161, %24
  %57 = getelementptr inbounds i32, ptr %.val109, i64 %56
  %58 = mul nsw i64 %indvars.iv161, %25
  %59 = getelementptr inbounds i32, ptr %.val108, i64 %58
  %60 = ptrtoint ptr %57 to i64
  %61 = ptrtoint ptr %59 to i64
  %62 = xor i64 %60, %61
  %63 = and i64 %62, 7
  %.not = icmp eq i64 %63, 0
  br i1 %.not, label %64, label %74

64:                                               ; preds = %51
  %65 = trunc i64 %60 to i32
  %66 = lshr i32 %65, 2
  %67 = and i32 %66, 1
  %.not101 = icmp eq i32 %67, 0
  br i1 %.not101, label %70, label %68

68:                                               ; preds = %64
  %69 = load i32, ptr %57, align 4
  store i32 %69, ptr %59, align 4
  br label %70

70:                                               ; preds = %68, %64
  %.not102120 = icmp sgt i32 %67, %18
  br i1 %.not102120, label %.loopexit112, label %.lr.ph122

.lr.ph122:                                        ; preds = %70, %.lr.ph122
  %indvars.iv152 = phi i64 [ %indvars.iv.next153, %.lr.ph122 ], [ %53, %70 ]
  %71 = getelementptr inbounds i32, ptr %57, i64 %indvars.iv152
  %72 = load double, ptr %71, align 8
  %73 = getelementptr inbounds i32, ptr %59, i64 %indvars.iv152
  store double %72, ptr %73, align 8
  %indvars.iv.next153 = add nuw nsw i64 %indvars.iv152, 2
  %.not102 = icmp ugt i64 %indvars.iv.next153, %21
  br i1 %.not102, label %.loopexit112.loopexit, label %.lr.ph122, !llvm.loop !37

74:                                               ; preds = %51
  %75 = trunc i64 %61 to i32
  %76 = lshr i32 %75, 2
  %77 = and i32 %76, 1
  %.not103 = icmp eq i32 %77, 0
  br i1 %.not103, label %80, label %78

78:                                               ; preds = %74
  %79 = load i32, ptr %57, align 4
  store i32 %79, ptr %59, align 4
  br label %80

80:                                               ; preds = %78, %74
  %.not104116 = icmp sgt i32 %77, %18
  br i1 %.not104116, label %.loopexit112, label %.lr.ph.preheader

.lr.ph.preheader:                                 ; preds = %80
  %81 = zext nneg i32 %77 to i64
  %82 = getelementptr inbounds i32, ptr %57, i64 %81
  %83 = getelementptr inbounds i8, ptr %82, i64 -4
  %84 = load i64, ptr %83, align 8
  br label %.lr.ph

.lr.ph:                                           ; preds = %.lr.ph.preheader, %.lr.ph
  %indvars.iv142 = phi i64 [ %55, %.lr.ph.preheader ], [ %indvars.iv.next143, %.lr.ph ]
  %.0119 = phi i64 [ %84, %.lr.ph.preheader ], [ %86, %.lr.ph ]
  %.094118 = phi ptr [ %83, %.lr.ph.preheader ], [ %85, %.lr.ph ]
  %85 = getelementptr inbounds i8, ptr %.094118, i64 8
  %86 = load i64, ptr %85, align 8
  %87 = tail call i64 @llvm.fshl.i64(i64 %86, i64 %.0119, i64 32)
  %88 = getelementptr inbounds i32, ptr %59, i64 %indvars.iv142
  store i64 %87, ptr %88, align 8
  %indvars.iv.next143 = add nuw nsw i64 %indvars.iv142, 2
  %.not104 = icmp ugt i64 %indvars.iv.next143, %21
  br i1 %.not104, label %.loopexit112.loopexit138, label %.lr.ph, !llvm.loop !38

.loopexit112.loopexit:                            ; preds = %.lr.ph122
  %89 = trunc nuw nsw i64 %indvars.iv.next153 to i32
  br label %.loopexit112

.loopexit112.loopexit138:                         ; preds = %.lr.ph
  %90 = trunc nuw nsw i64 %indvars.iv.next143 to i32
  br label %.loopexit112

.loopexit112:                                     ; preds = %.loopexit112.loopexit138, %.loopexit112.loopexit, %80, %70
  %.3 = phi i32 [ %67, %70 ], [ %77, %80 ], [ %89, %.loopexit112.loopexit ], [ %90, %.loopexit112.loopexit138 ]
  %91 = icmp slt i32 %.3, %.095
  br i1 %91, label %.lr.ph125.preheader, label %._crit_edge

.lr.ph125.preheader:                              ; preds = %.loopexit112
  %92 = zext nneg i32 %.3 to i64
  br label %.lr.ph125

.lr.ph125:                                        ; preds = %.lr.ph125.preheader, %.lr.ph125
  %indvars.iv158 = phi i64 [ %92, %.lr.ph125.preheader ], [ %indvars.iv.next159, %.lr.ph125 ]
  %93 = getelementptr inbounds i32, ptr %57, i64 %indvars.iv158
  %94 = load i32, ptr %93, align 4
  %95 = getelementptr inbounds i32, ptr %59, i64 %indvars.iv158
  store i32 %94, ptr %95, align 4
  %indvars.iv.next159 = add nuw nsw i64 %indvars.iv158, 1
  %exitcond.not = icmp eq i64 %indvars.iv.next159, %wide.trip.count
  br i1 %exitcond.not, label %._crit_edge, label %.lr.ph125, !llvm.loop !39

._crit_edge:                                      ; preds = %.lr.ph125, %.loopexit112
  %indvars.iv.next162 = add nuw nsw i64 %indvars.iv161, 1
  %indvars.iv.next = add i32 %indvars.iv, %20
  %indvars.iv.next151 = add i32 %indvars.iv150, %23
  %exitcond165.not = icmp eq i64 %indvars.iv.next162, %wide.trip.count164
  br i1 %exitcond165.not, label %.loopexit, label %51, !llvm.loop !40

.loopexit:                                        ; preds = %._crit_edge, %.lr.ph133.split.split, %._crit_edge131.us, %._crit_edge131.us.us, %.lr.ph133.split, %.preheader114, %.preheader
  ret void
}